target datalayout = "e-m:e-p270:32:32-p271:32:32-p272:64:64-i64:64-i128:128-f80:128-n8:16:32:64-S128"
target triple = "x86_64-pc-linux-gnu"

; Function Attrs: mustprogress nounwind uwtable
define noundef zeroext i1 @_Z10IsDriveDivi(i32 noundef %0) #2 {
  %2 = alloca i32, align 4
  store i32 %0, ptr %2, align 4
  ret i1 false
}

; Function Attrs: mustprogress nounwind uwtable
define noundef zeroext i1 @_Z9IsPathDivi(i32 noundef %0) #2 {
  %2 = alloca i32, align 4
  store i32 %0, ptr %2, align 4
  %3 = load i32, ptr %2, align 4
  %4 = icmp eq i32 %3, 47
  ret i1 %4
}

; Function Attrs: mustprogress uwtable
define noundef ptr @_Z11PointToNamePKw(ptr noundef %0) #0 {
  %2 = alloca ptr, align 8
  %3 = alloca ptr, align 8
  %4 = alloca i32, align 4
  store ptr %0, ptr %3, align 8
  %5 = load ptr, ptr %3, align 8
  %6 = call i64 @wcslen(ptr noundef %5) #6
  %7 = trunc i64 %6 to i32
  %8 = sub nsw i32 %7, 1
  store i32 %8, ptr %4, align 4
  br label %9

9:                                                ; preds = %26, %1
  %10 = load i32, ptr %4, align 4
  %11 = icmp sge i32 %10, 0
  br i1 %11, label %12, label %29

12:                                               ; preds = %9
  %13 = load ptr, ptr %3, align 8
  %14 = load i32, ptr %4, align 4
  %15 = sext i32 %14 to i64
  %16 = getelementptr inbounds i32, ptr %13, i64 %15
  %17 = load i32, ptr %16, align 4
  %18 = call noundef zeroext i1 @_Z9IsPathDivi(i32 noundef %17)
  br i1 %18, label %19, label %25

19:                                               ; preds = %12
  %20 = load ptr, ptr %3, align 8
  %21 = load i32, ptr %4, align 4
  %22 = add nsw i32 %21, 1
  %23 = sext i32 %22 to i64
  %24 = getelementptr inbounds i32, ptr %20, i64 %23
  store ptr %24, ptr %2, align 8
  br label %45

25:                                               ; preds = %12
  br label %26

26:                                               ; preds = %25
  %27 = load i32, ptr %4, align 4
  %28 = add nsw i32 %27, -1
  store i32 %28, ptr %4, align 4
  br label %9, !llvm.loop !4

29:                                               ; preds = %9
  %30 = load ptr, ptr %3, align 8
  %31 = load i32, ptr %30, align 4
  %32 = icmp ne i32 %31, 0
  br i1 %32, label %33, label %41

33:                                               ; preds = %29
  %34 = load ptr, ptr %3, align 8
  %35 = getelementptr inbounds i32, ptr %34, i64 1
  %36 = load i32, ptr %35, align 4
  %37 = call noundef zeroext i1 @_Z10IsDriveDivi(i32 noundef %36)
  br i1 %37, label %38, label %41

38:                                               ; preds = %33
  %39 = load ptr, ptr %3, align 8
  %40 = getelementptr inbounds i32, ptr %39, i64 2
  br label %43

41:                                               ; preds = %33, %29
  %42 = load ptr, ptr %3, align 8
  br label %43

43:                                               ; preds = %41, %38
  %44 = phi ptr [ %40, %38 ], [ %42, %41 ]
  store ptr %44, ptr %2, align 8
  br label %45

45:                                               ; preds = %43, %19
  %46 = load ptr, ptr %2, align 8
  ret ptr %46
}

; Function Attrs: mustprogress uwtable
define noundef ptr @_Z6GetExtPKw(ptr noundef %0) #0 {
  %2 = alloca ptr, align 8
  store ptr %0, ptr %2, align 8
  %3 = load ptr, ptr %2, align 8
  %4 = icmp eq ptr %3, null
  br i1 %4, label %5, label %6

5:                                                ; preds = %1
  br label %10

6:                                                ; preds = %1
  %7 = load ptr, ptr %2, align 8
  %8 = call noundef ptr @_Z11PointToNamePKw(ptr noundef %7)
  %9 = call ptr @wcsrchr(ptr noundef %8, i32 noundef signext 46) #6
  br label %10

10:                                               ; preds = %6, %5
  %11 = phi ptr [ null, %5 ], [ %9, %6 ]
  ret ptr %11
}